target datalayout = "e-m:e-p270:32:32-p271:32:32-p272:64:64-i64:64-i128:128-f80:128-n8:16:32:64-S128"
target triple = "x86_64-pc-linux-gnu"

%"class.std::__cxx11::basic_string" = type { %"struct.std::__cxx11::basic_string<char>::_Alloc_hider", i64, %union.anon }
%"struct.std::__cxx11::basic_string<char>::_Alloc_hider" = type { ptr }
%union.anon = type { i64, [8 x i8] }
%"struct.std::_Vector_base" = type { %"struct.std::_Vector_base<jsonnet::internal::FodderElement, std::allocator<jsonnet::internal::FodderElement>>::_Vector_impl" }
%"struct.std::_Vector_base<jsonnet::internal::FodderElement, std::allocator<jsonnet::internal::FodderElement>>::_Vector_impl" = type { %"struct.std::_Vector_base<jsonnet::internal::FodderElement, std::allocator<jsonnet::internal::FodderElement>>::_Vector_impl_data" }
%"struct.std::_Vector_base<jsonnet::internal::FodderElement, std::allocator<jsonnet::internal::FodderElement>>::_Vector_impl_data" = type { ptr, ptr, ptr }
%"class.std::vector" = type { %"struct.std::_Vector_base" }
%"struct.std::_Vector_base.26" = type { %"struct.std::_Vector_base<jsonnet::internal::ArgParam, std::allocator<jsonnet::internal::ArgParam>>::_Vector_impl" }
%"struct.std::_Vector_base<jsonnet::internal::ArgParam, std::allocator<jsonnet::internal::ArgParam>>::_Vector_impl" = type { %"struct.std::_Vector_base<jsonnet::internal::ArgParam, std::allocator<jsonnet::internal::ArgParam>>::_Vector_impl_data" }
%"struct.std::_Vector_base<jsonnet::internal::ArgParam, std::allocator<jsonnet::internal::ArgParam>>::_Vector_impl_data" = type { ptr, ptr, ptr }
%"struct.jsonnet::internal::ObjectField" = type { i32, %"class.std::vector", %"class.std::vector", %"class.std::vector", %"class.std::vector", i32, i8, i8, ptr, ptr, %"struct.jsonnet::internal::LocationRange", %"class.std::vector.25", i8, %"class.std::vector", ptr, ptr, %"class.std::vector" }
%"struct.jsonnet::internal::LocationRange" = type { %"class.std::__cxx11::basic_string", %"struct.jsonnet::internal::Location", %"struct.jsonnet::internal::Location" }
%"struct.jsonnet::internal::Location" = type { i64, i64 }
%"class.std::vector.25" = type { %"struct.std::_Vector_base.26" }
%"class.__gnu_cxx::__normal_iterator.39" = type { ptr }
%"struct.std::_Vector_base.35" = type { %"struct.std::_Vector_base<jsonnet::internal::ObjectField, std::allocator<jsonnet::internal::ObjectField>>::_Vector_impl" }
%"struct.std::_Vector_base<jsonnet::internal::ObjectField, std::allocator<jsonnet::internal::ObjectField>>::_Vector_impl" = type { %"struct.std::_Vector_base<jsonnet::internal::ObjectField, std::allocator<jsonnet::internal::ObjectField>>::_Vector_impl_data" }
%"struct.std::_Vector_base<jsonnet::internal::ObjectField, std::allocator<jsonnet::internal::ObjectField>>::_Vector_impl_data" = type { ptr, ptr, ptr }

; Function Attrs: mustprogress nounwind uwtable
define linkonce_odr noundef nonnull align 8 dereferenceable(8) ptr @_ZNK9__gnu_cxx17__normal_iteratorIPN7jsonnet8internal11ObjectFieldESt6vectorIS3_SaIS3_EEE4baseEv(ptr noundef nonnull align 8 dereferenceable(8) %0) #5 comdat align 2 {
  %2 = alloca ptr, align 8
  store ptr %0, ptr %2, align 8, !tbaa !83
  %3 = load ptr, ptr %2, align 8
  %4 = getelementptr inbounds nuw %"class.__gnu_cxx::__normal_iterator.39", ptr %3, i32 0, i32 0
  ret ptr %4
}

; Function Attrs: mustprogress nounwind uwtable
define linkonce_odr void @_ZN9__gnu_cxx17__normal_iteratorIPN7jsonnet8internal11ObjectFieldESt6vectorIS3_SaIS3_EEEC2ERKS4_(ptr noundef nonnull align 8 dereferenceable(8) %0, ptr noundef nonnull align 8 dereferenceable(8) %1) unnamed_addr #5 comdat align 2 {
  %3 = alloca ptr, align 8
  %4 = alloca ptr, align 8
  store ptr %0, ptr %3, align 8, !tbaa !83
  store ptr %1, ptr %4, align 8, !tbaa !444
  %5 = load ptr, ptr %3, align 8
  %6 = getelementptr inbounds nuw %"class.__gnu_cxx::__normal_iterator.39", ptr %5, i32 0, i32 0
  %7 = load ptr, ptr %4, align 8, !tbaa !444
  %8 = load ptr, ptr %7, align 8, !tbaa !60
  store ptr %8, ptr %6, align 8, !tbaa !85
  ret void
}

; Function Attrs: mustprogress nounwind uwtable
define linkonce_odr noundef nonnull align 8 dereferenceable(8) ptr @_ZN9__gnu_cxx17__normal_iteratorIPN7jsonnet8internal11ObjectFieldESt6vectorIS3_SaIS3_EEEppEv(ptr noundef nonnull align 8 dereferenceable(8) %0) #5 comdat align 2 {
  %2 = alloca ptr, align 8
  store ptr %0, ptr %2, align 8, !tbaa !83
  %3 = load ptr, ptr %2, align 8
  %4 = getelementptr inbounds nuw %"class.__gnu_cxx::__normal_iterator.39", ptr %3, i32 0, i32 0
  %5 = load ptr, ptr %4, align 8, !tbaa !85
  %6 = getelementptr inbounds nuw %"struct.jsonnet::internal::ObjectField", ptr %5, i32 1
  store ptr %6, ptr %4, align 8, !tbaa !85
  ret ptr %3
}

; Function Attrs: mustprogress nounwind uwtable
define linkonce_odr noundef nonnull align 8 dereferenceable(288) ptr @_ZNK9__gnu_cxx17__normal_iteratorIPN7jsonnet8internal11ObjectFieldESt6vectorIS3_SaIS3_EEEdeEv(ptr noundef nonnull align 8 dereferenceable(8) %0) #5 comdat align 2 {
  %2 = alloca ptr, align 8
  store ptr %0, ptr %2, align 8, !tbaa !83
  %3 = load ptr, ptr %2, align 8
  %4 = getelementptr inbounds nuw %"class.__gnu_cxx::__normal_iterator.39", ptr %3, i32 0, i32 0
  %5 = load ptr, ptr %4, align 8, !tbaa !85
  ret ptr %5
}

; Function Attrs: inlinehint mustprogress nounwind uwtable
define linkonce_odr noundef zeroext i1 @_ZN9__gnu_cxxneIPN7jsonnet8internal11ObjectFieldESt6vectorIS3_SaIS3_EEEEbRKNS_17__normal_iteratorIT_T0_EESD_(ptr noundef nonnull align 8 dereferenceable(8) %0, ptr noundef nonnull align 8 dereferenceable(8) %1) #7 comdat {
  %3 = alloca ptr, align 8
  %4 = alloca ptr, align 8
  store ptr %0, ptr %3, align 8, !tbaa !83
  store ptr %1, ptr %4, align 8, !tbaa !83
  %5 = load ptr, ptr %3, align 8, !tbaa !83
  %6 = call noundef nonnull align 8 dereferenceable(8) ptr @_ZNK9__gnu_cxx17__normal_iteratorIPN7jsonnet8internal11ObjectFieldESt6vectorIS3_SaIS3_EEE4baseEv(ptr noundef nonnull align 8 dereferenceable(8) %5) #3
  %7 = load ptr, ptr %6, align 8, !tbaa !60
  %8 = load ptr, ptr %4, align 8, !tbaa !83
  %9 = call noundef nonnull align 8 dereferenceable(8) ptr @_ZNK9__gnu_cxx17__normal_iteratorIPN7jsonnet8internal11ObjectFieldESt6vectorIS3_SaIS3_EEE4baseEv(ptr noundef nonnull align 8 dereferenceable(8) %8) #3
  %10 = load ptr, ptr %9, align 8, !tbaa !60
  %11 = icmp ne ptr %7, %10
  ret i1 %11
}

; Function Attrs: mustprogress nounwind uwtable
define linkonce_odr ptr @_ZNSt6vectorIN7jsonnet8internal11ObjectFieldESaIS2_EE3endEv(ptr noundef nonnull align 8 dereferenceable(24) %0) #5 comdat align 2 {
  %2 = alloca %"class.__gnu_cxx::__normal_iterator.39", align 8
  %3 = alloca ptr, align 8
  store ptr %0, ptr %3, align 8, !tbaa !79
  %4 = load ptr, ptr %3, align 8
  %5 = getelementptr inbounds nuw %"struct.std::_Vector_base.35", ptr %4, i32 0, i32 0
  %6 = getelementptr inbounds nuw %"struct.std::_Vector_base<jsonnet::internal::ObjectField, std::allocator<jsonnet::internal::ObjectField>>::_Vector_impl_data", ptr %5, i32 0, i32 1
  call void @_ZN9__gnu_cxx17__normal_iteratorIPN7jsonnet8internal11ObjectFieldESt6vectorIS3_SaIS3_EEEC2ERKS4_(ptr noundef nonnull align 8 dereferenceable(8) %2, ptr noundef nonnull align 8 dereferenceable(8) %6) #3
  %7 = getelementptr inbounds nuw %"class.__gnu_cxx::__normal_iterator.39", ptr %2, i32 0, i32 0
  %8 = load ptr, ptr %7, align 8
  ret ptr %8
}

; Function Attrs: mustprogress nounwind uwtable
define linkonce_odr ptr @_ZNSt6vectorIN7jsonnet8internal11ObjectFieldESaIS2_EE5beginEv(ptr noundef nonnull align 8 dereferenceable(24) %0) #5 comdat align 2 {
  %2 = alloca %"class.__gnu_cxx::__normal_iterator.39", align 8
  %3 = alloca ptr, align 8
  store ptr %0, ptr %3, align 8, !tbaa !79
  %4 = load ptr, ptr %3, align 8
  %5 = getelementptr inbounds nuw %"struct.std::_Vector_base.35", ptr %4, i32 0, i32 0
  %6 = getelementptr inbounds nuw %"struct.std::_Vector_base<jsonnet::internal::ObjectField, std::allocator<jsonnet::internal::ObjectField>>::_Vector_impl_data", ptr %5, i32 0, i32 0
  call void @_ZN9__gnu_cxx17__normal_iteratorIPN7jsonnet8internal11ObjectFieldESt6vectorIS3_SaIS3_EEEC2ERKS4_(ptr noundef nonnull align 8 dereferenceable(8) %2, ptr noundef nonnull align 8 dereferenceable(8) %6) #3
  %7 = getelementptr inbounds nuw %"class.__gnu_cxx::__normal_iterator.39", ptr %2, i32 0, i32 0
  %8 = load ptr, ptr %7, align 8
  ret ptr %8
}

; Function Attrs: mustprogress uwtable
define void @_ZN7jsonnet8internal12CompilerPass6fieldsERSt6vectorINS0_11ObjectFieldESaIS3_EE(ptr noundef nonnull align 8 dereferenceable(16) %0, ptr noundef nonnull align 8 dereferenceable(24) %1) unnamed_addr #4 align 2 {
  %3 = alloca ptr, align 8
  %4 = alloca ptr, align 8
  %5 = alloca ptr, align 8
  %6 = alloca %"class.__gnu_cxx::__normal_iterator.39", align 8
  %7 = alloca %"class.__gnu_cxx::__normal_iterator.39", align 8
  %8 = alloca ptr, align 8
  store ptr %0, ptr %3, align 8, !tbaa !21
  store ptr %1, ptr %4, align 8, !tbaa !79
  %9 = load ptr, ptr %3, align 8
  call void @llvm.lifetime.start.p0(i64 8, ptr %5) #3
  %10 = load ptr, ptr %4, align 8, !tbaa !79
  store ptr %10, ptr %5, align 8, !tbaa !79
  call void @llvm.lifetime.start.p0(i64 8, ptr %6) #3
  %11 = load ptr, ptr %5, align 8, !tbaa !79
  %12 = call ptr @_ZNSt6vectorIN7jsonnet8internal11ObjectFieldESaIS2_EE5beginEv(ptr noundef nonnull align 8 dereferenceable(24) %11) #3
  %13 = getelementptr inbounds nuw %"class.__gnu_cxx::__normal_iterator.39", ptr %6, i32 0, i32 0
  store ptr %12, ptr %13, align 8
  call void @llvm.lifetime.start.p0(i64 8, ptr %7) #3
  %14 = load ptr, ptr %5, align 8, !tbaa !79
  %15 = call ptr @_ZNSt6vectorIN7jsonnet8internal11ObjectFieldESaIS2_EE3endEv(ptr noundef nonnull align 8 dereferenceable(24) %14) #3
  %16 = getelementptr inbounds nuw %"class.__gnu_cxx::__normal_iterator.39", ptr %7, i32 0, i32 0
  store ptr %15, ptr %16, align 8
  br label %17

17:                                               ; preds = %143, %2
  %18 = call noundef zeroext i1 @_ZN9__gnu_cxxneIPN7jsonnet8internal11ObjectFieldESt6vectorIS3_SaIS3_EEEEbRKNS_17__normal_iteratorIT_T0_EESD_(ptr noundef nonnull align 8 dereferenceable(8) %6, ptr noundef nonnull align 8 dereferenceable(8) %7) #3
  br i1 %18, label %20, label %19

19:                                               ; preds = %17
  call void @llvm.lifetime.end.p0(i64 8, ptr %7) #3
  call void @llvm.lifetime.end.p0(i64 8, ptr %6) #3
  call void @llvm.lifetime.end.p0(i64 8, ptr %5) #3
  br label %145

20:                                               ; preds = %17
  call void @llvm.lifetime.start.p0(i64 8, ptr %8) #3
  %21 = call noundef nonnull align 8 dereferenceable(288) ptr @_ZNK9__gnu_cxx17__normal_iteratorIPN7jsonnet8internal11ObjectFieldESt6vectorIS3_SaIS3_EEEdeEv(ptr noundef nonnull align 8 dereferenceable(8) %6) #3
  store ptr %21, ptr %8, align 8, !tbaa !60
  %22 = load ptr, ptr %8, align 8, !tbaa !60
  %23 = getelementptr inbounds nuw %"struct.jsonnet::internal::ObjectField", ptr %22, i32 0, i32 0
  %24 = load i32, ptr %23, align 8, !tbaa !81
  switch i32 %24, label %137 [
    i32 4, label %25
    i32 1, label %50
    i32 3, label %50
    i32 2, label %50
    i32 0, label %110
  ]

25:                                               ; preds = %20
  %26 = load ptr, ptr %8, align 8, !tbaa !60
  %27 = getelementptr inbounds nuw %"struct.jsonnet::internal::ObjectField", ptr %26, i32 0, i32 1
  %28 = load ptr, ptr %9, align 8, !tbaa !27
  %29 = getelementptr inbounds ptr, ptr %28, i64 1
  %30 = load ptr, ptr %29, align 8
  call void %30(ptr noundef nonnull align 8 dereferenceable(16) %9, ptr noundef nonnull align 8 dereferenceable(24) %27)
  %31 = load ptr, ptr %8, align 8, !tbaa !60
  %32 = getelementptr inbounds nuw %"struct.jsonnet::internal::ObjectField", ptr %31, i32 0, i32 2
  %33 = load ptr, ptr %9, align 8, !tbaa !27
  %34 = getelementptr inbounds ptr, ptr %33, i64 1
  %35 = load ptr, ptr %34, align 8
  call void %35(ptr noundef nonnull align 8 dereferenceable(16) %9, ptr noundef nonnull align 8 dereferenceable(24) %32)
  %36 = load ptr, ptr %8, align 8, !tbaa !60
  %37 = load ptr, ptr %9, align 8, !tbaa !27
  %38 = getelementptr inbounds ptr, ptr %37, i64 4
  %39 = load ptr, ptr %38, align 8
  call void %39(ptr noundef nonnull align 8 dereferenceable(16) %9, ptr noundef nonnull align 8 dereferenceable(288) %36)
  %40 = load ptr, ptr %8, align 8, !tbaa !60
  %41 = getelementptr inbounds nuw %"struct.jsonnet::internal::ObjectField", ptr %40, i32 0, i32 13
  %42 = load ptr, ptr %9, align 8, !tbaa !27
  %43 = getelementptr inbounds ptr, ptr %42, i64 1
  %44 = load ptr, ptr %43, align 8
  call void %44(ptr noundef nonnull align 8 dereferenceable(16) %9, ptr noundef nonnull align 8 dereferenceable(24) %41)
  %45 = load ptr, ptr %8, align 8, !tbaa !60
  %46 = getelementptr inbounds nuw %"struct.jsonnet::internal::ObjectField", ptr %45, i32 0, i32 14
  %47 = load ptr, ptr %9, align 8, !tbaa !27
  %48 = getelementptr inbounds ptr, ptr %47, i64 6
  %49 = load ptr, ptr %48, align 8
  call void %49(ptr noundef nonnull align 8 dereferenceable(16) %9, ptr noundef nonnull align 8 dereferenceable(8) %46)
  br label %137

50:                                               ; preds = %20, %20, %20
  %51 = load ptr, ptr %8, align 8, !tbaa !60
  %52 = getelementptr inbounds nuw %"struct.jsonnet::internal::ObjectField", ptr %51, i32 0, i32 0
  %53 = load i32, ptr %52, align 8, !tbaa !81
  %54 = icmp eq i32 %53, 1
  br i1 %54, label %55, label %61

55:                                               ; preds = %50
  %56 = load ptr, ptr %8, align 8, !tbaa !60
  %57 = getelementptr inbounds nuw %"struct.jsonnet::internal::ObjectField", ptr %56, i32 0, i32 1
  %58 = load ptr, ptr %9, align 8, !tbaa !27
  %59 = getelementptr inbounds ptr, ptr %58, i64 1
  %60 = load ptr, ptr %59, align 8
  call void %60(ptr noundef nonnull align 8 dereferenceable(16) %9, ptr noundef nonnull align 8 dereferenceable(24) %57)
  br label %95

61:                                               ; preds = %50
  %62 = load ptr, ptr %8, align 8, !tbaa !60
  %63 = getelementptr inbounds nuw %"struct.jsonnet::internal::ObjectField", ptr %62, i32 0, i32 0
  %64 = load i32, ptr %63, align 8, !tbaa !81
  %65 = icmp eq i32 %64, 3
  br i1 %65, label %66, label %72

66:                                               ; preds = %61
  %67 = load ptr, ptr %8, align 8, !tbaa !60
  %68 = getelementptr inbounds nuw %"struct.jsonnet::internal::ObjectField", ptr %67, i32 0, i32 8
  %69 = load ptr, ptr %9, align 8, !tbaa !27
  %70 = getelementptr inbounds ptr, ptr %69, i64 6
  %71 = load ptr, ptr %70, align 8
  call void %71(ptr noundef nonnull align 8 dereferenceable(16) %9, ptr noundef nonnull align 8 dereferenceable(8) %68)
  br label %94

72:                                               ; preds = %61
  %73 = load ptr, ptr %8, align 8, !tbaa !60
  %74 = getelementptr inbounds nuw %"struct.jsonnet::internal::ObjectField", ptr %73, i32 0, i32 0
  %75 = load i32, ptr %74, align 8, !tbaa !81
  %76 = icmp eq i32 %75, 2
  br i1 %76, label %77, label %93

77:                                               ; preds = %72
  %78 = load ptr, ptr %8, align 8, !tbaa !60
  %79 = getelementptr inbounds nuw %"struct.jsonnet::internal::ObjectField", ptr %78, i32 0, i32 1
  %80 = load ptr, ptr %9, align 8, !tbaa !27
  %81 = getelementptr inbounds ptr, ptr %80, i64 1
  %82 = load ptr, ptr %81, align 8
  call void %82(ptr noundef nonnull align 8 dereferenceable(16) %9, ptr noundef nonnull align 8 dereferenceable(24) %79)
  %83 = load ptr, ptr %8, align 8, !tbaa !60
  %84 = getelementptr inbounds nuw %"struct.jsonnet::internal::ObjectField", ptr %83, i32 0, i32 8
  %85 = load ptr, ptr %9, align 8, !tbaa !27
  %86 = getelementptr inbounds ptr, ptr %85, i64 6
  %87 = load ptr, ptr %86, align 8
  call void %87(ptr noundef nonnull align 8 dereferenceable(16) %9, ptr noundef nonnull align 8 dereferenceable(8) %84)
  %88 = load ptr, ptr %8, align 8, !tbaa !60
  %89 = getelementptr inbounds nuw %"struct.jsonnet::internal::ObjectField", ptr %88, i32 0, i32 2
  %90 = load ptr, ptr %9, align 8, !tbaa !27
  %91 = getelementptr inbounds ptr, ptr %90, i64 1
  %92 = load ptr, ptr %91, align 8
  call void %92(ptr noundef nonnull align 8 dereferenceable(16) %9, ptr noundef nonnull align 8 dereferenceable(24) %89)
  br label %93

93:                                               ; preds = %77, %72
  br label %94

94:                                               ; preds = %93, %66
  br label %95

95:                                               ; preds = %94, %55
  %96 = load ptr, ptr %8, align 8, !tbaa !60
  %97 = load ptr, ptr %9, align 8, !tbaa !27
  %98 = getelementptr inbounds ptr, ptr %97, i64 4
  %99 = load ptr, ptr %98, align 8
  call void %99(ptr noundef nonnull align 8 dereferenceable(16) %9, ptr noundef nonnull align 8 dereferenceable(288) %96)
  %100 = load ptr, ptr %8, align 8, !tbaa !60
  %101 = getelementptr inbounds nuw %"struct.jsonnet::internal::ObjectField", ptr %100, i32 0, i32 13
  %102 = load ptr, ptr %9, align 8, !tbaa !27
  %103 = getelementptr inbounds ptr, ptr %102, i64 1
  %104 = load ptr, ptr %103, align 8
  call void %104(ptr noundef nonnull align 8 dereferenceable(16) %9, ptr noundef nonnull align 8 dereferenceable(24) %101)
  %105 = load ptr, ptr %8, align 8, !tbaa !60
  %106 = getelementptr inbounds nuw %"struct.jsonnet::internal::ObjectField", ptr %105, i32 0, i32 14
  %107 = load ptr, ptr %9, align 8, !tbaa !27
  %108 = getelementptr inbounds ptr, ptr %107, i64 6
  %109 = load ptr, ptr %108, align 8
  call void %109(ptr noundef nonnull align 8 dereferenceable(16) %9, ptr noundef nonnull align 8 dereferenceable(8) %106)
  br label %137

110:                                              ; preds = %20
  %111 = load ptr, ptr %8, align 8, !tbaa !60
  %112 = getelementptr inbounds nuw %"struct.jsonnet::internal::ObjectField", ptr %111, i32 0, i32 1
  %113 = load ptr, ptr %9, align 8, !tbaa !27
  %114 = getelementptr inbounds ptr, ptr %113, i64 1
  %115 = load ptr, ptr %114, align 8
  call void %115(ptr noundef nonnull align 8 dereferenceable(16) %9, ptr noundef nonnull align 8 dereferenceable(24) %112)
  %116 = load ptr, ptr %8, align 8, !tbaa !60
  %117 = getelementptr inbounds nuw %"struct.jsonnet::internal::ObjectField", ptr %116, i32 0, i32 14
  %118 = load ptr, ptr %9, align 8, !tbaa !27
  %119 = getelementptr inbounds ptr, ptr %118, i64 6
  %120 = load ptr, ptr %119, align 8
  call void %120(ptr noundef nonnull align 8 dereferenceable(16) %9, ptr noundef nonnull align 8 dereferenceable(8) %117)
  %121 = load ptr, ptr %8, align 8, !tbaa !60
  %122 = getelementptr inbounds nuw %"struct.jsonnet::internal::ObjectField", ptr %121, i32 0, i32 15
  %123 = load ptr, ptr %122, align 8, !tbaa !82
  %124 = icmp ne ptr %123, null
  br i1 %124, label %125, label %136

125:                                              ; preds = %110
  %126 = load ptr, ptr %8, align 8, !tbaa !60
  %127 = getelementptr inbounds nuw %"struct.jsonnet::internal::ObjectField", ptr %126, i32 0, i32 13
  %128 = load ptr, ptr %9, align 8, !tbaa !27
  %129 = getelementptr inbounds ptr, ptr %128, i64 1
  %130 = load ptr, ptr %129, align 8
  call void %130(ptr noundef nonnull align 8 dereferenceable(16) %9, ptr noundef nonnull align 8 dereferenceable(24) %127)
  %131 = load ptr, ptr %8, align 8, !tbaa !60
  %132 = getelementptr inbounds nuw %"struct.jsonnet::internal::ObjectField", ptr %131, i32 0, i32 15
  %133 = load ptr, ptr %9, align 8, !tbaa !27
  %134 = getelementptr inbounds ptr, ptr %133, i64 6
  %135 = load ptr, ptr %134, align 8
  call void %135(ptr noundef nonnull align 8 dereferenceable(16) %9, ptr noundef nonnull align 8 dereferenceable(8) %132)
  br label %136

136:                                              ; preds = %125, %110
  br label %137

137:                                              ; preds = %20, %136, %95, %25
  %138 = load ptr, ptr %8, align 8, !tbaa !60
  %139 = getelementptr inbounds nuw %"struct.jsonnet::internal::ObjectField", ptr %138, i32 0, i32 16
  %140 = load ptr, ptr %9, align 8, !tbaa !27
  %141 = getelementptr inbounds ptr, ptr %140, i64 1
  %142 = load ptr, ptr %141, align 8
  call void %142(ptr noundef nonnull align 8 dereferenceable(16) %9, ptr noundef nonnull align 8 dereferenceable(24) %139)
  call void @llvm.lifetime.end.p0(i64 8, ptr %8) #3
  br label %143

143:                                              ; preds = %137
  %144 = call noundef nonnull align 8 dereferenceable(8) ptr @_ZN9__gnu_cxx17__normal_iteratorIPN7jsonnet8internal11ObjectFieldESt6vectorIS3_SaIS3_EEEppEv(ptr noundef nonnull align 8 dereferenceable(8) %6) #3
  br label %17

145:                                              ; preds = %19
  ret void
}