; Function Attrs: mustprogress uwtable
define void @_ZN7jsonnet8internal12CompilerPass6fieldsERSt6vectorINS0_11ObjectFieldESaIS3_EE(ptr noundef nonnull align 8 dereferenceable(16) %0, ptr noundef nonnull readonly align 8 captures(none) dereferenceable(24) %1) unnamed_addr #4 align 2 {
  %3 = load ptr, ptr %1, align 8, !tbaa !50
  %4 = getelementptr inbounds nuw i8, ptr %1, i64 8
  %5 = load ptr, ptr %4, align 8, !tbaa !50
  %.not3031 = icmp eq ptr %3, %5
  br i1 %.not3031, label %._crit_edge, label %.lr.ph

._crit_edge:                                      ; preds = %66, %2
  ret void

.lr.ph:                                           ; preds = %2, %66
  %.sroa.027.032 = phi ptr [ %71, %66 ], [ %3, %2 ]
  %6 = load i32, ptr %.sroa.027.032, align 8, !tbaa !52
  switch i32 %6, label %66 [
    i32 4, label %7
    i32 0, label %47
    i32 1, label %34
    i32 3, label %24
    i32 2, label %25
  ]

7:                                                ; preds = %.lr.ph
  %8 = getelementptr inbounds nuw i8, ptr %.sroa.027.032, i64 8
  %9 = load ptr, ptr %0, align 8, !tbaa !17
  %10 = getelementptr inbounds nuw i8, ptr %9, i64 8
  %11 = load ptr, ptr %10, align 8
  tail call void %11(ptr noundef nonnull align 8 dereferenceable(16) %0, ptr noundef nonnull align 8 dereferenceable(24) %8)
  %12 = getelementptr inbounds nuw i8, ptr %.sroa.027.032, i64 32
  %13 = load ptr, ptr %0, align 8, !tbaa !17
  %14 = getelementptr inbounds nuw i8, ptr %13, i64 8
  %15 = load ptr, ptr %14, align 8
  tail call void %15(ptr noundef nonnull align 8 dereferenceable(16) %0, ptr noundef nonnull align 8 dereferenceable(24) %12)
  %16 = load ptr, ptr %0, align 8, !tbaa !17
  %17 = getelementptr inbounds nuw i8, ptr %16, i64 32
  %18 = load ptr, ptr %17, align 8
  tail call void %18(ptr noundef nonnull align 8 dereferenceable(16) %0, ptr noundef nonnull align 8 dereferenceable(288) %.sroa.027.032)
  %19 = getelementptr inbounds nuw i8, ptr %.sroa.027.032, i64 224
  %20 = load ptr, ptr %0, align 8, !tbaa !17
  %21 = getelementptr inbounds nuw i8, ptr %20, i64 8
  %22 = load ptr, ptr %21, align 8
  tail call void %22(ptr noundef nonnull align 8 dereferenceable(16) %0, ptr noundef nonnull align 8 dereferenceable(24) %19)
  %23 = getelementptr inbounds nuw i8, ptr %.sroa.027.032, i64 248
  br label %.sink.split

24:                                               ; preds = %.lr.ph
  br label %34

25:                                               ; preds = %.lr.ph
  %26 = getelementptr inbounds nuw i8, ptr %.sroa.027.032, i64 8
  %27 = load ptr, ptr %0, align 8, !tbaa !17
  %28 = getelementptr inbounds nuw i8, ptr %27, i64 8
  %29 = load ptr, ptr %28, align 8
  tail call void %29(ptr noundef nonnull align 8 dereferenceable(16) %0, ptr noundef nonnull align 8 dereferenceable(24) %26)
  %30 = getelementptr inbounds nuw i8, ptr %.sroa.027.032, i64 112
  %31 = load ptr, ptr %0, align 8, !tbaa !17
  %32 = getelementptr inbounds nuw i8, ptr %31, i64 48
  %33 = load ptr, ptr %32, align 8
  tail call void %33(ptr noundef nonnull align 8 dereferenceable(16) %0, ptr noundef nonnull align 8 dereferenceable(8) %30)
  br label %34

34:                                               ; preds = %.lr.ph, %24, %25
  %.sink37 = phi i64 [ 112, %24 ], [ 32, %25 ], [ 8, %.lr.ph ]
  %.sink36 = phi i64 [ 48, %24 ], [ 8, %25 ], [ 8, %.lr.ph ]
  %35 = getelementptr inbounds nuw i8, ptr %.sroa.027.032, i64 %.sink37
  %36 = load ptr, ptr %0, align 8, !tbaa !17
  %37 = getelementptr inbounds nuw i8, ptr %36, i64 %.sink36
  %38 = load ptr, ptr %37, align 8
  tail call void %38(ptr noundef nonnull align 8 dereferenceable(16) %0, ptr noundef nonnull align 8 dereferenceable(8) %35)
  %39 = load ptr, ptr %0, align 8, !tbaa !17
  %40 = getelementptr inbounds nuw i8, ptr %39, i64 32
  %41 = load ptr, ptr %40, align 8
  tail call void %41(ptr noundef nonnull align 8 dereferenceable(16) %0, ptr noundef nonnull align 8 dereferenceable(288) %.sroa.027.032)
  %42 = getelementptr inbounds nuw i8, ptr %.sroa.027.032, i64 224
  %43 = load ptr, ptr %0, align 8, !tbaa !17
  %44 = getelementptr inbounds nuw i8, ptr %43, i64 8
  %45 = load ptr, ptr %44, align 8
  tail call void %45(ptr noundef nonnull align 8 dereferenceable(16) %0, ptr noundef nonnull align 8 dereferenceable(24) %42)
  %46 = getelementptr inbounds nuw i8, ptr %.sroa.027.032, i64 248
  br label %.sink.split

47:                                               ; preds = %.lr.ph
  %48 = getelementptr inbounds nuw i8, ptr %.sroa.027.032, i64 8
  %49 = load ptr, ptr %0, align 8, !tbaa !17
  %50 = getelementptr inbounds nuw i8, ptr %49, i64 8
  %51 = load ptr, ptr %50, align 8
  tail call void %51(ptr noundef nonnull align 8 dereferenceable(16) %0, ptr noundef nonnull align 8 dereferenceable(24) %48)
  %52 = getelementptr inbounds nuw i8, ptr %.sroa.027.032, i64 248
  %53 = load ptr, ptr %0, align 8, !tbaa !17
  %54 = getelementptr inbounds nuw i8, ptr %53, i64 48
  %55 = load ptr, ptr %54, align 8
  tail call void %55(ptr noundef nonnull align 8 dereferenceable(16) %0, ptr noundef nonnull align 8 dereferenceable(8) %52)
  %56 = getelementptr inbounds nuw i8, ptr %.sroa.027.032, i64 256
  %57 = load ptr, ptr %56, align 8, !tbaa !53
  %.not = icmp eq ptr %57, null
  br i1 %.not, label %66, label %58

58:                                               ; preds = %47
  %59 = getelementptr inbounds nuw i8, ptr %.sroa.027.032, i64 224
  %60 = load ptr, ptr %0, align 8, !tbaa !17
  %61 = getelementptr inbounds nuw i8, ptr %60, i64 8
  %62 = load ptr, ptr %61, align 8
  tail call void %62(ptr noundef nonnull align 8 dereferenceable(16) %0, ptr noundef nonnull align 8 dereferenceable(24) %59)
  br label %.sink.split

.sink.split:                                      ; preds = %7, %34, %58
  %.sink = phi ptr [ %56, %58 ], [ %46, %34 ], [ %23, %7 ]
  %63 = load ptr, ptr %0, align 8, !tbaa !17
  %64 = getelementptr inbounds nuw i8, ptr %63, i64 48
  %65 = load ptr, ptr %64, align 8
  tail call void %65(ptr noundef nonnull align 8 dereferenceable(16) %0, ptr noundef nonnull align 8 dereferenceable(8) %.sink)
  br label %66

66:                                               ; preds = %.sink.split, %.lr.ph, %47
  %67 = getelementptr inbounds nuw i8, ptr %.sroa.027.032, i64 264
  %68 = load ptr, ptr %0, align 8, !tbaa !17
  %69 = getelementptr inbounds nuw i8, ptr %68, i64 8
  %70 = load ptr, ptr %69, align 8
  tail call void %70(ptr noundef nonnull align 8 dereferenceable(16) %0, ptr noundef nonnull align 8 dereferenceable(24) %67)
  %71 = getelementptr inbounds nuw i8, ptr %.sroa.027.032, i64 288
  %.not30 = icmp eq ptr %71, %5
  br i1 %.not30, label %._crit_edge, label %.lr.ph
}